(ikeras_frcnn.config
Config
p0
(dp1
S'use_vertical_flips'
p2
I00
sS'rpn_max_overlap'
p3
F0.7
sS'verbose'
p4
I01
sS'num_rois'
p5
I32
sS'img_channel_mean'
p6
(lp7
F103.939
aF116.779
aF123.68
asS'anchor_box_scales'
p8
(lp9
I128
aI256
aI512
asS'anchor_box_ratios'
p10
(lp11
(lp12
I1
aI1
aa(lp13
I1
aI2
aa(lp14
I2
aI1
aasS'rpn_min_overlap'
p15
F0.3
sS'rot_90'
p16
I00
sS'classifier_min_overlap'
p17
F0.1
sS'im_size'
p18
I600
sS'class_mapping'
p19
(dp20
S'bridge'
p21
I29
sS'bicycle'
p22
I9
sS'fence'
p23
I14
sS'wall'
p24
I18
sS'caravan'
p25
I33
sS'train'
p26
I30
sS'terrain'
p27
I1
sS'traffic sign'
p28
I0
sS'pole'
p29
I6
sS'ridergroup'
p30
I31
sS'motorcycle'
p31
I19
sS'parking'
p32
I24
sS'bicyclegroup'
p33
I20
sS'ground'
p34
I26
sS'out of roi'
p35
I11
sS'traffic light'
p36
I15
sS'sky'
p37
I5
sS'rail track'
p38
I28
sS'busgroup'
p39
I36
sS'truckgroup'
p40
I34
sS'rectification border'
p41
I27
sS'rider'
p42
I8
sS'vegetation'
p43
I2
sS'persongroup'
p44
I17
sS'bg'
p45
I38
sS'guard rail'
p46
I35
sS'bus'
p47
I21
sS'cargroup'
p48
I13
sS'ego vehicle'
p49
I10
sS'building'
p50
I4
sS'tunnel'
p51
I37
sS'car'
p52
I3
sS'traingroup'
p53
I32
sS'person'
p54
I16
sS'motorcyclegroup'
p55
I23
sS'truck'
p56
I25
sS'trailer'
p57
I22
sS'sidewalk'
p58
I12
sS'road'
p59
I7
ssS'img_scaling_factor'
p60
F1.0
sS'base_net_weights'
p61
S'resnet50_weights_tf_dim_ordering_tf_kernels.h5'
p62
sS'classifier_regr_std'
p63
(lp64
F8.0
aF8.0
aF4.0
aF4.0
asS'model_path'
p65
S'./model_frcnn.hdf5'
p66
sS'classifier_max_overlap'
p67
F0.5
sS'std_scaling'
p68
F4.0
sS'use_horizontal_flips'
p69
I00
sS'rpn_stride'
p70
I16
sS'balanced_classes'
p71
I00
sb.